; Function Attrs: nounwind uwtable
define internal void @ws_evhttp_error_cb(ptr noundef %0, i16 noundef signext %1, ptr noundef %2) #0 {
  %4 = and i16 %1, 16
  %.not = icmp eq i16 %4, 0
  br i1 %.not, label %6, label %5

5:                                                ; preds = %3
  tail call void @close_after_write_cb(ptr noundef %0, ptr noundef %2)
  br label %6

6:                                                ; preds = %5, %3
  ret void
}